target datalayout = "e-m:e-p270:32:32-p271:32:32-p272:64:64-i64:64-i128:128-f80:128-n8:16:32:64-S128"
target triple = "x86_64-pc-linux-gnu"

%struct.ConvData = type { ptr, ptr, ptr, %struct.UConverterSharedData, %struct.UConverterStaticData }
%struct.UConverterSharedData = type { i32, i32, ptr, ptr, i8, i8, ptr, i32, %struct.UConverterMBCSTable }
%struct.UConverterMBCSTable = type { i8, i8, i8, i32, ptr, ptr, ptr, ptr, ptr, ptr, [64 x i16], ptr, ptr, i32, i8, i8, i8, i16, i32, ptr, ptr, ptr, ptr }
%struct.UConverterStaticData = type { i32, [60 x i8], i32, i8, i8, i8, i8, [4 x i8], i8, i8, i8, i8, i8, [19 x i8] }
%struct.NewConverter = type { ptr, ptr, ptr, ptr }

; Function Attrs: mustprogress uwtable
define internal void @_ZL15cleanupConvDataP8ConvData(ptr noundef %0) #1 {
  %2 = alloca ptr, align 8
  store ptr %0, ptr %2, align 8, !tbaa !39
  %3 = load ptr, ptr %2, align 8, !tbaa !39
  %4 = icmp ne ptr %3, null
  br i1 %4, label %5, label %43

5:                                                ; preds = %1
  %6 = load ptr, ptr %2, align 8, !tbaa !39
  %7 = getelementptr inbounds nuw %struct.ConvData, ptr %6, i32 0, i32 1
  %8 = load ptr, ptr %7, align 8, !tbaa !59
  %9 = icmp ne ptr %8, null
  br i1 %9, label %10, label %21

10:                                               ; preds = %5
  %11 = load ptr, ptr %2, align 8, !tbaa !39
  %12 = getelementptr inbounds nuw %struct.ConvData, ptr %11, i32 0, i32 1
  %13 = load ptr, ptr %12, align 8, !tbaa !59
  %14 = getelementptr inbounds nuw %struct.NewConverter, ptr %13, i32 0, i32 0
  %15 = load ptr, ptr %14, align 8, !tbaa !97
  %16 = load ptr, ptr %2, align 8, !tbaa !39
  %17 = getelementptr inbounds nuw %struct.ConvData, ptr %16, i32 0, i32 1
  %18 = load ptr, ptr %17, align 8, !tbaa !59
  call void %15(ptr noundef %18)
  %19 = load ptr, ptr %2, align 8, !tbaa !39
  %20 = getelementptr inbounds nuw %struct.ConvData, ptr %19, i32 0, i32 1
  store ptr null, ptr %20, align 8, !tbaa !59
  br label %21

21:                                               ; preds = %10, %5
  %22 = load ptr, ptr %2, align 8, !tbaa !39
  %23 = getelementptr inbounds nuw %struct.ConvData, ptr %22, i32 0, i32 2
  %24 = load ptr, ptr %23, align 8, !tbaa !74
  %25 = icmp ne ptr %24, null
  br i1 %25, label %26, label %37

26:                                               ; preds = %21
  %27 = load ptr, ptr %2, align 8, !tbaa !39
  %28 = getelementptr inbounds nuw %struct.ConvData, ptr %27, i32 0, i32 2
  %29 = load ptr, ptr %28, align 8, !tbaa !74
  %30 = getelementptr inbounds nuw %struct.NewConverter, ptr %29, i32 0, i32 0
  %31 = load ptr, ptr %30, align 8, !tbaa !97
  %32 = load ptr, ptr %2, align 8, !tbaa !39
  %33 = getelementptr inbounds nuw %struct.ConvData, ptr %32, i32 0, i32 2
  %34 = load ptr, ptr %33, align 8, !tbaa !74
  call void %31(ptr noundef %34)
  %35 = load ptr, ptr %2, align 8, !tbaa !39
  %36 = getelementptr inbounds nuw %struct.ConvData, ptr %35, i32 0, i32 2
  store ptr null, ptr %36, align 8, !tbaa !74
  br label %37

37:                                               ; preds = %26, %21
  %38 = load ptr, ptr %2, align 8, !tbaa !39
  %39 = getelementptr inbounds nuw %struct.ConvData, ptr %38, i32 0, i32 0
  %40 = load ptr, ptr %39, align 8, !tbaa !56
  call void @ucm_close(ptr noundef %40)
  %41 = load ptr, ptr %2, align 8, !tbaa !39
  %42 = getelementptr inbounds nuw %struct.ConvData, ptr %41, i32 0, i32 0
  store ptr null, ptr %42, align 8, !tbaa !56
  br label %43

43:                                               ; preds = %37, %1
  ret void
}