; Function Attrs: mustprogress norecurse uwtable
define internal fastcc void @_ZL15cleanupConvDataP8ConvData(ptr noundef nonnull captures(none) %0) unnamed_addr #10 {
  %2 = getelementptr inbounds nuw i8, ptr %0, i64 8
  %3 = load ptr, ptr %2, align 8, !tbaa !41
  %.not = icmp eq ptr %3, null
  br i1 %.not, label %6, label %4

4:                                                ; preds = %1
  %5 = load ptr, ptr %3, align 8, !tbaa !75
  tail call void %5(ptr noundef nonnull %3)
  store ptr null, ptr %2, align 8, !tbaa !41
  br label %6

6:                                                ; preds = %4, %1
  %7 = getelementptr inbounds nuw i8, ptr %0, i64 16
  %8 = load ptr, ptr %7, align 8, !tbaa !56
  %.not13 = icmp eq ptr %8, null
  br i1 %.not13, label %11, label %9

9:                                                ; preds = %6
  %10 = load ptr, ptr %8, align 8, !tbaa !75
  tail call void %10(ptr noundef nonnull %8)
  store ptr null, ptr %7, align 8, !tbaa !56
  br label %11

11:                                               ; preds = %9, %6
  %12 = load ptr, ptr %0, align 8, !tbaa !40
  tail call void @ucm_close(ptr noundef %12)
  store ptr null, ptr %0, align 8, !tbaa !40
  ret void
}